; ModuleID = '31/1572.c'
source_filename = "31/1572.c"
target datalayout = "e-m:e-p270:32:32-p271:32:32-p272:64:64-i64:64-f80:128-n8:16:32:64-S128"
target triple = "x86_64-pc-linux-gnu"

%struct.a = type { [6 x [100 x i8]], %struct.a* }

@tot = dso_local global i32 0, align 4
@head = common dso_local global %struct.a zeroinitializer, align 8
@.str = private unnamed_addr constant [3 x i8] c"%s\00", align 1
@.str.1 = private unnamed_addr constant [4 x i8] c"end\00", align 1
@.str.2 = private unnamed_addr constant [4 x i8] c"%s \00", align 1

; Function Attrs: noinline nounwind uwtable
define dso_local void @init() #0 {
  %1 = alloca i32, align 4
  %2 = alloca %struct.a*, align 8
  store %struct.a* null, %struct.a** getelementptr inbounds (%struct.a, %struct.a* @head, i32 0, i32 1), align 8
  br label %3

3:                                                ; preds = %0, %33
  %4 = call noalias i8* @malloc(i64 608) #4
  %5 = bitcast i8* %4 to %struct.a*
  store %struct.a* %5, %struct.a** %2, align 8
  %6 = load %struct.a*, %struct.a** %2, align 8
  %7 = getelementptr inbounds %struct.a, %struct.a* %6, i32 0, i32 0
  %8 = getelementptr inbounds [6 x [100 x i8]], [6 x [100 x i8]]* %7, i64 0, i64 0
  %9 = getelementptr inbounds [100 x i8], [100 x i8]* %8, i64 0, i64 0
  %10 = call i32 (i8*, ...) @__isoc99_scanf(i8* getelementptr inbounds ([3 x i8], [3 x i8]* @.str, i64 0, i64 0), i8* %9)
  %11 = load %struct.a*, %struct.a** %2, align 8
  %12 = getelementptr inbounds %struct.a, %struct.a* %11, i32 0, i32 0
  %13 = getelementptr inbounds [6 x [100 x i8]], [6 x [100 x i8]]* %12, i64 0, i64 0
  %14 = getelementptr inbounds [100 x i8], [100 x i8]* %13, i64 0, i64 0
  %15 = call i32 @strcmp(i8* %14, i8* getelementptr inbounds ([4 x i8], [4 x i8]* @.str.1, i64 0, i64 0)) #5
  %16 = icmp ne i32 %15, 0
  br i1 %16, label %18, label %17

17:                                               ; preds = %3
  br label %38

18:                                               ; preds = %3
  store i32 1, i32* %1, align 4
  br label %19

19:                                               ; preds = %30, %18
  %20 = load i32, i32* %1, align 4
  %21 = icmp slt i32 %20, 6
  br i1 %21, label %22, label %33

22:                                               ; preds = %19
  %23 = load %struct.a*, %struct.a** %2, align 8
  %24 = getelementptr inbounds %struct.a, %struct.a* %23, i32 0, i32 0
  %25 = load i32, i32* %1, align 4
  %26 = sext i32 %25 to i64
  %27 = getelementptr inbounds [6 x [100 x i8]], [6 x [100 x i8]]* %24, i64 0, i64 %26
  %28 = getelementptr inbounds [100 x i8], [100 x i8]* %27, i64 0, i64 0
  %29 = call i32 (i8*, ...) @__isoc99_scanf(i8* getelementptr inbounds ([3 x i8], [3 x i8]* @.str, i64 0, i64 0), i8* %28)
  br label %30

30:                                               ; preds = %22
  %31 = load i32, i32* %1, align 4
  %32 = add nsw i32 %31, 1
  store i32 %32, i32* %1, align 4
  br label %19

33:                                               ; preds = %19
  %34 = load %struct.a*, %struct.a** getelementptr inbounds (%struct.a, %struct.a* @head, i32 0, i32 1), align 8
  %35 = load %struct.a*, %struct.a** %2, align 8
  %36 = getelementptr inbounds %struct.a, %struct.a* %35, i32 0, i32 1
  store %struct.a* %34, %struct.a** %36, align 8
  %37 = load %struct.a*, %struct.a** %2, align 8
  store %struct.a* %37, %struct.a** getelementptr inbounds (%struct.a, %struct.a* @head, i32 0, i32 1), align 8
  br label %3

38:                                               ; preds = %17
  ret void
}

; Function Attrs: nounwind
declare dso_local noalias i8* @malloc(i64) #1

declare dso_local i32 @__isoc99_scanf(i8*, ...) #2

; Function Attrs: nounwind readonly
declare dso_local i32 @strcmp(i8*, i8*) #3

; Function Attrs: noinline nounwind uwtable
define dso_local void @print() #0 {
  %1 = alloca %struct.a*, align 8
  %2 = alloca i32, align 4
  %3 = load %struct.a*, %struct.a** getelementptr inbounds (%struct.a, %struct.a* @head, i32 0, i32 1), align 8
  store %struct.a* %3, %struct.a** %1, align 8
  br label %4

4:                                                ; preds = %22, %0
  %5 = load %struct.a*, %struct.a** %1, align 8
  %6 = icmp ne %struct.a* %5, null
  br i1 %6, label %7, label %33

7:                                                ; preds = %4
  store i32 0, i32* %2, align 4
  br label %8

8:                                                ; preds = %19, %7
  %9 = load i32, i32* %2, align 4
  %10 = icmp slt i32 %9, 5
  br i1 %10, label %11, label %22

11:                                               ; preds = %8
  %12 = load %struct.a*, %struct.a** %1, align 8
  %13 = getelementptr inbounds %struct.a, %struct.a* %12, i32 0, i32 0
  %14 = load i32, i32* %2, align 4
  %15 = sext i32 %14 to i64
  %16 = getelementptr inbounds [6 x [100 x i8]], [6 x [100 x i8]]* %13, i64 0, i64 %15
  %17 = getelementptr inbounds [100 x i8], [100 x i8]* %16, i64 0, i64 0
  %18 = call i32 (i8*, ...) @printf(i8* getelementptr inbounds ([4 x i8], [4 x i8]* @.str.2, i64 0, i64 0), i8* %17)
  br label %19

19:                                               ; preds = %11
  %20 = load i32, i32* %2, align 4
  %21 = add nsw i32 %20, 1
  store i32 %21, i32* %2, align 4
  br label %8

22:                                               ; preds = %8
  %23 = load %struct.a*, %struct.a** %1, align 8
  %24 = getelementptr inbounds %struct.a, %struct.a* %23, i32 0, i32 0
  %25 = load i32, i32* %2, align 4
  %26 = sext i32 %25 to i64
  %27 = getelementptr inbounds [6 x [100 x i8]], [6 x [100 x i8]]* %24, i64 0, i64 %26
  %28 = getelementptr inbounds [100 x i8], [100 x i8]* %27, i64 0, i64 0
  %29 = call i32 @puts(i8* %28)
  %30 = load %struct.a*, %struct.a** %1, align 8
  %31 = getelementptr inbounds %struct.a, %struct.a* %30, i32 0, i32 1
  %32 = load %struct.a*, %struct.a** %31, align 8
  store %struct.a* %32, %struct.a** %1, align 8
  br label %4

33:                                               ; preds = %4
  ret void
}

declare dso_local i32 @printf(i8*, ...) #2

declare dso_local i32 @puts(i8*) #2

; Function Attrs: noinline nounwind uwtable
define dso_local i32 @main() #0 {
  %1 = alloca i32, align 4
  store i32 0, i32* %1, align 4
  call void @init()
  call void @print()
  ret i32 0
}


!llvm.module.flags = !{!0}
!llvm.ident = !{!1}

!0 = !{i32 1, !"wchar_size", i32 4}
!1 = !{!"clang version 10.0.0-4ubuntu1 "}
